target datalayout = "e-m:e-p270:32:32-p271:32:32-p272:64:64-i64:64-i128:128-f80:128-n8:16:32:64-S128"
target triple = "x86_64-pc-linux-gnu"

%struct.JSValue = type { %union.JSValueUnion, i64 }
%union.JSValueUnion = type { double }

; Function Attrs: nounwind uwtable
define internal i64 @js_get_errno(i64 noundef %0) #0 {
  %2 = alloca i64, align 8
  store i64 %0, ptr %2, align 8
  %3 = load i64, ptr %2, align 8
  %4 = icmp eq i64 %3, -1
  br i1 %4, label %5, label %10

5:                                                ; preds = %1
  %6 = call ptr @__errno_location() #10
  %7 = load i32, ptr %6, align 4
  %8 = sub i32 0, %7
  %9 = sext i32 %8 to i64
  store i64 %9, ptr %2, align 8
  br label %10

10:                                               ; preds = %5, %1
  %11 = load i64, ptr %2, align 8
  ret i64 %11
}

; Function Attrs: nounwind uwtable
define internal i32 @JS_IsUndefined(i64 %0, i64 %1) #0 {
  %3 = alloca %struct.JSValue, align 8
  %4 = getelementptr inbounds { i64, i64 }, ptr %3, i32 0, i32 0
  store i64 %0, ptr %4, align 8
  %5 = getelementptr inbounds { i64, i64 }, ptr %3, i32 0, i32 1
  store i64 %1, ptr %5, align 8
  %6 = getelementptr inbounds %struct.JSValue, ptr %3, i32 0, i32 1
  %7 = load i64, ptr %6, align 8
  %8 = trunc i64 %7 to i32
  %9 = icmp eq i32 %8, 3
  %10 = zext i1 %9 to i32
  ret i32 %10
}

; Function Attrs: nounwind uwtable
define internal ptr @JS_ToCString(ptr noundef %0, i64 %1, i64 %2) #0 {
  %4 = alloca %struct.JSValue, align 8
  %5 = alloca ptr, align 8
  %6 = getelementptr inbounds { i64, i64 }, ptr %4, i32 0, i32 0
  store i64 %1, ptr %6, align 8
  %7 = getelementptr inbounds { i64, i64 }, ptr %4, i32 0, i32 1
  store i64 %2, ptr %7, align 8
  store ptr %0, ptr %5, align 8
  %8 = load ptr, ptr %5, align 8
  %9 = getelementptr inbounds { i64, i64 }, ptr %4, i32 0, i32 0
  %10 = load i64, ptr %9, align 8
  %11 = getelementptr inbounds { i64, i64 }, ptr %4, i32 0, i32 1
  %12 = load i64, ptr %11, align 8
  %13 = call ptr @JS_ToCStringLen2(ptr noundef %8, ptr noundef null, i64 %10, i64 %12, i32 noundef 0)
  ret ptr %13
}

; Function Attrs: nounwind uwtable
define internal { i64, i64 } @js_os_open(ptr noundef %0, i64 %1, i64 %2, i32 noundef %3, ptr noundef %4) #0 {
  %6 = alloca %struct.JSValue, align 8
  %7 = alloca ptr, align 8
  %8 = alloca i32, align 4
  %9 = alloca %struct.JSValue, align 8
  %10 = alloca %struct.JSValue, align 8
  %11 = alloca ptr, align 8
  %12 = alloca i32, align 4
  %13 = alloca ptr, align 8
  %14 = alloca ptr, align 8
  %15 = alloca i32, align 4
  %16 = alloca i32, align 4
  %17 = alloca i32, align 4
  %18 = getelementptr inbounds { i64, i64 }, ptr %10, i32 0, i32 0
  store i64 %1, ptr %18, align 8
  %19 = getelementptr inbounds { i64, i64 }, ptr %10, i32 0, i32 1
  store i64 %2, ptr %19, align 8
  store ptr %0, ptr %11, align 8
  store i32 %3, ptr %12, align 4
  store ptr %4, ptr %13, align 8
  %20 = load ptr, ptr %11, align 8
  %21 = load ptr, ptr %13, align 8
  %22 = getelementptr %struct.JSValue, ptr %21, i64 0
  %23 = getelementptr inbounds { i64, i64 }, ptr %22, i32 0, i32 0
  %24 = load i64, ptr %23, align 8
  %25 = getelementptr inbounds { i64, i64 }, ptr %22, i32 0, i32 1
  %26 = load i64, ptr %25, align 8
  %27 = call ptr @JS_ToCString(ptr noundef %20, i64 %24, i64 %26)
  store ptr %27, ptr %14, align 8
  %28 = load ptr, ptr %14, align 8
  %29 = icmp ne ptr %28, null
  br i1 %29, label %33, label %30

30:                                               ; preds = %5
  %31 = getelementptr inbounds %struct.JSValue, ptr %9, i32 0, i32 0
  store i32 0, ptr %31, align 8
  %32 = getelementptr inbounds %struct.JSValue, ptr %9, i32 0, i32 1
  store i64 6, ptr %32, align 8
  br label %93

33:                                               ; preds = %5
  %34 = load ptr, ptr %11, align 8
  %35 = load ptr, ptr %13, align 8
  %36 = getelementptr %struct.JSValue, ptr %35, i64 1
  %37 = getelementptr inbounds { i64, i64 }, ptr %36, i32 0, i32 0
  %38 = load i64, ptr %37, align 8
  %39 = getelementptr inbounds { i64, i64 }, ptr %36, i32 0, i32 1
  %40 = load i64, ptr %39, align 8
  %41 = call i32 @JS_ToInt32(ptr noundef %34, ptr noundef %15, i64 %38, i64 %40)
  %42 = icmp ne i32 %41, 0
  br i1 %42, label %43, label %44

43:                                               ; preds = %33
  br label %67

44:                                               ; preds = %33
  %45 = load i32, ptr %12, align 4
  %46 = icmp sge i32 %45, 3
  br i1 %46, label %47, label %73

47:                                               ; preds = %44
  %48 = load ptr, ptr %13, align 8
  %49 = getelementptr %struct.JSValue, ptr %48, i64 2
  %50 = getelementptr inbounds { i64, i64 }, ptr %49, i32 0, i32 0
  %51 = load i64, ptr %50, align 8
  %52 = getelementptr inbounds { i64, i64 }, ptr %49, i32 0, i32 1
  %53 = load i64, ptr %52, align 8
  %54 = call i32 @JS_IsUndefined(i64 %51, i64 %53)
  %55 = icmp ne i32 %54, 0
  br i1 %55, label %73, label %56

56:                                               ; preds = %47
  %57 = load ptr, ptr %11, align 8
  %58 = load ptr, ptr %13, align 8
  %59 = getelementptr %struct.JSValue, ptr %58, i64 2
  %60 = getelementptr inbounds { i64, i64 }, ptr %59, i32 0, i32 0
  %61 = load i64, ptr %60, align 8
  %62 = getelementptr inbounds { i64, i64 }, ptr %59, i32 0, i32 1
  %63 = load i64, ptr %62, align 8
  %64 = call i32 @JS_ToInt32(ptr noundef %57, ptr noundef %16, i64 %61, i64 %63)
  %65 = icmp ne i32 %64, 0
  br i1 %65, label %66, label %72

66:                                               ; preds = %56
  br label %67

67:                                               ; preds = %66, %43
  %68 = load ptr, ptr %11, align 8
  %69 = load ptr, ptr %14, align 8
  call void @JS_FreeCString(ptr noundef %68, ptr noundef %69)
  %70 = getelementptr inbounds %struct.JSValue, ptr %9, i32 0, i32 0
  store i32 0, ptr %70, align 8
  %71 = getelementptr inbounds %struct.JSValue, ptr %9, i32 0, i32 1
  store i64 6, ptr %71, align 8
  br label %93

72:                                               ; preds = %56
  br label %74

73:                                               ; preds = %47, %44
  store i32 438, ptr %16, align 4
  br label %74

74:                                               ; preds = %73, %72
  %75 = load ptr, ptr %14, align 8
  %76 = load i32, ptr %15, align 4
  %77 = load i32, ptr %16, align 4
  %78 = call i32 (ptr, i32, ...) @open(ptr noundef %75, i32 noundef %76, i32 noundef %77)
  %79 = sext i32 %78 to i64
  %80 = call i64 @js_get_errno(i64 noundef %79)
  %81 = trunc i64 %80 to i32
  store i32 %81, ptr %17, align 4
  %82 = load ptr, ptr %11, align 8
  %83 = load ptr, ptr %14, align 8
  call void @JS_FreeCString(ptr noundef %82, ptr noundef %83)
  %84 = load ptr, ptr %11, align 8
  %85 = load i32, ptr %17, align 4
  store ptr %84, ptr %7, align 8
  store i32 %85, ptr %8, align 4
  %86 = load i32, ptr %8, align 4
  store i32 %86, ptr %6, align 8
  %87 = getelementptr inbounds %struct.JSValue, ptr %6, i32 0, i32 1
  store i64 0, ptr %87, align 8
  %88 = load { i64, i64 }, ptr %6, align 8
  %89 = getelementptr inbounds { i64, i64 }, ptr %9, i32 0, i32 0
  %90 = extractvalue { i64, i64 } %88, 0
  store i64 %90, ptr %89, align 8
  %91 = getelementptr inbounds { i64, i64 }, ptr %9, i32 0, i32 1
  %92 = extractvalue { i64, i64 } %88, 1
  store i64 %92, ptr %91, align 8
  br label %93

93:                                               ; preds = %74, %67, %30
  %94 = load { i64, i64 }, ptr %9, align 8
  ret { i64, i64 } %94
}