; Function Attrs: nounwind uwtable
define internal { i64, i64 } @js_os_open(ptr noundef %0, i64 %1, i64 %2, i32 noundef %3, ptr nocapture noundef readonly %4) #0 {
  %6 = alloca i32, align 4
  %7 = alloca i32, align 4
  %8 = load i64, ptr %4, align 8
  %9 = getelementptr inbounds i8, ptr %4, i64 8
  %10 = load i64, ptr %9, align 8
  %11 = tail call ptr @JS_ToCStringLen2(ptr noundef %0, ptr noundef null, i64 %8, i64 %10, i32 noundef 0) #29
  %.not = icmp eq ptr %11, null
  br i1 %.not, label %38, label %12

12:                                               ; preds = %5
  %13 = getelementptr i8, ptr %4, i64 16
  %14 = load i64, ptr %13, align 8
  %15 = getelementptr i8, ptr %4, i64 24
  %16 = load i64, ptr %15, align 8
  %17 = call i32 @JS_ToInt32(ptr noundef %0, ptr noundef nonnull %6, i64 %14, i64 %16) #29
  %.not22 = icmp eq i32 %17, 0
  br i1 %.not22, label %18, label %.sink.split

18:                                               ; preds = %12
  %19 = icmp sgt i32 %3, 2
  br i1 %19, label %20, label %28

20:                                               ; preds = %18
  %21 = getelementptr i8, ptr %4, i64 40
  %22 = load i64, ptr %21, align 8
  %23 = and i64 %22, 4294967295
  %.not25 = icmp eq i64 %23, 3
  br i1 %.not25, label %28, label %24

24:                                               ; preds = %20
  %25 = getelementptr i8, ptr %4, i64 32
  %26 = load i64, ptr %25, align 8
  %27 = call i32 @JS_ToInt32(ptr noundef %0, ptr noundef nonnull %7, i64 %26, i64 %22) #29
  %.not24 = icmp eq i32 %27, 0
  br i1 %.not24, label %._crit_edge, label %.sink.split

._crit_edge:                                      ; preds = %24
  %.pre = load i32, ptr %7, align 4
  br label %29

28:                                               ; preds = %20, %18
  store i32 438, ptr %7, align 4
  br label %29

29:                                               ; preds = %._crit_edge, %28
  %30 = phi i32 [ %.pre, %._crit_edge ], [ 438, %28 ]
  %31 = load i32, ptr %6, align 4
  %32 = call i32 (ptr, i32, ...) @open(ptr noundef nonnull %11, i32 noundef %31, i32 noundef %30) #29
  %33 = icmp eq i32 %32, -1
  br i1 %33, label %34, label %js_get_errno.exit

34:                                               ; preds = %29
  %35 = tail call ptr @__errno_location() #28
  %36 = load i32, ptr %35, align 4
  %37 = sub i32 0, %36
  br label %js_get_errno.exit

js_get_errno.exit:                                ; preds = %29, %34
  %.0.i.in = phi i32 [ %37, %34 ], [ %32, %29 ]
  %.0.i = zext i32 %.0.i.in to i64
  br label %.sink.split

.sink.split:                                      ; preds = %12, %24, %js_get_errno.exit
  %.sroa.015.0.ph = phi i64 [ %.0.i, %js_get_errno.exit ], [ 0, %24 ], [ 0, %12 ]
  %.sroa.4.sroa.2.0.ph = phi i64 [ 0, %js_get_errno.exit ], [ 6, %24 ], [ 6, %12 ]
  call void @JS_FreeCString(ptr noundef %0, ptr noundef nonnull %11) #29
  br label %38

38:                                               ; preds = %.sink.split, %5
  %.sroa.015.0 = phi i64 [ 0, %5 ], [ %.sroa.015.0.ph, %.sink.split ]
  %.sroa.4.sroa.2.0 = phi i64 [ 6, %5 ], [ %.sroa.4.sroa.2.0.ph, %.sink.split ]
  %.fca.0.insert = insertvalue { i64, i64 } poison, i64 %.sroa.015.0, 0
  %.fca.1.insert = insertvalue { i64, i64 } %.fca.0.insert, i64 %.sroa.4.sroa.2.0, 1
  ret { i64, i64 } %.fca.1.insert
}